; Function Attrs: mustprogress noreturn uwtable
define hidden void @_ZN4lean22throw_memory_exceptionEPKc(ptr noundef %0) local_unnamed_addr #7 personality ptr @__gxx_personality_v0 {
  %2 = tail call ptr @__cxa_allocate_exception(i64 72) #13
  invoke void @_ZN4lean16memory_exceptionC1EPKc(ptr noundef nonnull align 8 dereferenceable(72) %2, ptr noundef %0)
          to label %3 unwind label %4

3:                                                ; preds = %1
  tail call void @__cxa_throw(ptr nonnull %2, ptr nonnull @_ZTIN4lean16memory_exceptionE, ptr nonnull @_ZN4lean16memory_exceptionD2Ev) #14
  unreachable

4:                                                ; preds = %1
  %5 = landingpad { ptr, i32 }
          cleanup
  tail call void @__cxa_free_exception(ptr nonnull %2) #13
  resume { ptr, i32 } %5
}